target datalayout = "e-m:e-p270:32:32-p271:32:32-p272:64:64-i64:64-i128:128-f80:128-n8:16:32:64-S128"
target triple = "x86_64-pc-linux-gnu"

%struct.H5Z_class2_t = type { i32, i32, i32, i32, ptr, ptr, ptr, ptr }

@.str = private unnamed_addr constant [97 x i8] c"generated/home/dtcxzyw/WorkSpace/Projects/compilers/llvm-opt-benchmark/bench/hdf5/hdf5/src/H5Z.c\00", align 1
@H5Z_table_g = internal global ptr null, align 8
@H5Z_table_alloc_g = internal global i64 0, align 8
@H5Z_table_used_g = internal global i64 0, align 8
@__func__.H5Z_register = private unnamed_addr constant [13 x i8] c"H5Z_register\00", align 1
@H5E_RESOURCE_g = external global i64, align 8
@H5E_NOSPACE_g = external global i64, align 8
@.str.13 = private unnamed_addr constant [30 x i8] c"unable to extend filter table\00", align 1

; Function Attrs: nounwind uwtable
define i32 @H5Z_register(ptr noundef %0) #0 {
  %2 = alloca ptr, align 8
  %3 = alloca i64, align 8
  %4 = alloca i32, align 4
  %5 = alloca i8, align 1
  %6 = alloca i64, align 8
  %7 = alloca ptr, align 8
  store ptr %0, ptr %2, align 8
  store i32 0, ptr %4, align 4
  store i8 0, ptr %5, align 1
  store i64 0, ptr %3, align 8
  br label %8

8:                                                ; preds = %24, %1
  %9 = load i64, ptr %3, align 8
  %10 = load i64, ptr @H5Z_table_used_g, align 8
  %11 = icmp ult i64 %9, %10
  br i1 %11, label %12, label %27

12:                                               ; preds = %8
  %13 = load ptr, ptr @H5Z_table_g, align 8
  %14 = load i64, ptr %3, align 8
  %15 = getelementptr inbounds %struct.H5Z_class2_t, ptr %13, i64 %14
  %16 = getelementptr inbounds %struct.H5Z_class2_t, ptr %15, i32 0, i32 1
  %17 = load i32, ptr %16, align 4
  %18 = load ptr, ptr %2, align 8
  %19 = getelementptr inbounds %struct.H5Z_class2_t, ptr %18, i32 0, i32 1
  %20 = load i32, ptr %19, align 4
  %21 = icmp eq i32 %17, %20
  br i1 %21, label %22, label %23

22:                                               ; preds = %12
  br label %27

23:                                               ; preds = %12
  br label %24

24:                                               ; preds = %23
  %25 = load i64, ptr %3, align 8
  %26 = add i64 %25, 1
  store i64 %26, ptr %3, align 8
  br label %8

27:                                               ; preds = %22, %8
  %28 = load i64, ptr %3, align 8
  %29 = load i64, ptr @H5Z_table_used_g, align 8
  %30 = icmp uge i64 %28, %29
  br i1 %30, label %31, label %76

31:                                               ; preds = %27
  %32 = load i64, ptr @H5Z_table_used_g, align 8
  %33 = load i64, ptr @H5Z_table_alloc_g, align 8
  %34 = icmp uge i64 %32, %33
  br i1 %34, label %35, label %69

35:                                               ; preds = %31
  %36 = load i64, ptr @H5Z_table_alloc_g, align 8
  %37 = mul i64 2, %36
  %38 = icmp ugt i64 32, %37
  br i1 %38, label %39, label %40

39:                                               ; preds = %35
  br label %43

40:                                               ; preds = %35
  %41 = load i64, ptr @H5Z_table_alloc_g, align 8
  %42 = mul i64 2, %41
  br label %43

43:                                               ; preds = %40, %39
  %44 = phi i64 [ 32, %39 ], [ %42, %40 ]
  store i64 %44, ptr %6, align 8
  %45 = load ptr, ptr @H5Z_table_g, align 8
  %46 = load i64, ptr %6, align 8
  %47 = mul i64 %46, 48
  %48 = call ptr @H5MM_realloc(ptr noundef %45, i64 noundef %47)
  store ptr %48, ptr %7, align 8
  %49 = load ptr, ptr %7, align 8
  %50 = icmp ne ptr %49, null
  br i1 %50, label %66, label %51

51:                                               ; preds = %43
  br label %52

52:                                               ; preds = %51
  br label %53

53:                                               ; preds = %52
  br label %54

54:                                               ; preds = %53
  %55 = load i64, ptr @H5E_RESOURCE_g, align 8
  %56 = load i64, ptr @H5E_NOSPACE_g, align 8
  %57 = call i32 (ptr, ptr, i32, i64, i64, ptr, ...) @H5E_printf_stack(ptr noundef @.str, ptr noundef @__func__.H5Z_register, i32 noundef 318, i64 noundef %55, i64 noundef %56, ptr noundef @.str.13)
  br label %58

58:                                               ; preds = %54
  store i8 1, ptr %5, align 1
  %59 = load i8, ptr %5, align 1
  %60 = trunc i8 %59 to i1
  %61 = zext i1 %60 to i8
  store i8 %61, ptr %5, align 1
  br label %62

62:                                               ; preds = %58
  br label %63

63:                                               ; preds = %62
  store i32 -1, ptr %4, align 4
  br label %82

64:                                               ; No predecessors!
  br label %65

65:                                               ; preds = %64
  br label %66

66:                                               ; preds = %65, %43
  %67 = load ptr, ptr %7, align 8
  store ptr %67, ptr @H5Z_table_g, align 8
  %68 = load i64, ptr %6, align 8
  store i64 %68, ptr @H5Z_table_alloc_g, align 8
  br label %69

69:                                               ; preds = %66, %31
  %70 = load i64, ptr @H5Z_table_used_g, align 8
  %71 = add i64 %70, 1
  store i64 %71, ptr @H5Z_table_used_g, align 8
  store i64 %70, ptr %3, align 8
  %72 = load ptr, ptr @H5Z_table_g, align 8
  %73 = load i64, ptr %3, align 8
  %74 = getelementptr inbounds %struct.H5Z_class2_t, ptr %72, i64 %73
  %75 = load ptr, ptr %2, align 8
  call void @llvm.memcpy.p0.p0.i64(ptr align 8 %74, ptr align 8 %75, i64 48, i1 false)
  br label %81

76:                                               ; preds = %27
  %77 = load ptr, ptr @H5Z_table_g, align 8
  %78 = load i64, ptr %3, align 8
  %79 = getelementptr inbounds %struct.H5Z_class2_t, ptr %77, i64 %78
  %80 = load ptr, ptr %2, align 8
  call void @llvm.memcpy.p0.p0.i64(ptr align 8 %79, ptr align 8 %80, i64 48, i1 false)
  br label %81

81:                                               ; preds = %76, %69
  br label %82

82:                                               ; preds = %81, %63
  %83 = load i32, ptr %4, align 4
  ret i32 %83
}