; Function Attrs: nounwind uwtable
define range(i32 -1, 1) i32 @H5Z_register(ptr nocapture noundef readonly %0) local_unnamed_addr #0 {
  %2 = load i64, ptr @H5Z_table_used_g, align 8
  %.not = icmp eq i64 %2, 0
  %.pre24.pre = load ptr, ptr @H5Z_table_g, align 8
  br i1 %.not, label %._crit_edge, label %.lr.ph

.lr.ph:                                           ; preds = %1
  %3 = getelementptr inbounds i8, ptr %0, i64 4
  %4 = load i32, ptr %3, align 4
  br label %5

5:                                                ; preds = %.lr.ph, %9
  %.022 = phi i64 [ 0, %.lr.ph ], [ %10, %9 ]
  %6 = getelementptr inbounds %struct.H5Z_class2_t, ptr %.pre24.pre, i64 %.022, i32 1
  %7 = load i32, ptr %6, align 4
  %8 = icmp eq i32 %7, %4
  br i1 %8, label %27, label %9

9:                                                ; preds = %5
  %10 = add nuw i64 %.022, 1
  %exitcond.not = icmp eq i64 %10, %2
  br i1 %exitcond.not, label %._crit_edge, label %5

._crit_edge:                                      ; preds = %9, %1
  %11 = load i64, ptr @H5Z_table_alloc_g, align 8
  %.not18 = icmp ult i64 %2, %11
  br i1 %.not18, label %22, label %12

12:                                               ; preds = %._crit_edge
  %13 = shl i64 %11, 1
  %14 = tail call i64 @llvm.umax.i64(i64 %13, i64 32)
  %15 = mul i64 %14, 48
  %16 = tail call ptr @H5MM_realloc(ptr noundef %.pre24.pre, i64 noundef %15) #9
  %.not19 = icmp eq ptr %16, null
  br i1 %.not19, label %17, label %21

17:                                               ; preds = %12
  %18 = load i64, ptr @H5E_RESOURCE_g, align 8
  %19 = load i64, ptr @H5E_NOSPACE_g, align 8
  %20 = tail call i32 (ptr, ptr, i32, i64, i64, ptr, ...) @H5E_printf_stack(ptr noundef nonnull @.str, ptr noundef nonnull @__func__.H5Z_register, i32 noundef 318, i64 noundef %18, i64 noundef %19, ptr noundef nonnull @.str.13) #9
  br label %29

21:                                               ; preds = %12
  store ptr %16, ptr @H5Z_table_g, align 8
  store i64 %14, ptr @H5Z_table_alloc_g, align 8
  %.pre = load i64, ptr @H5Z_table_used_g, align 8
  br label %22

22:                                               ; preds = %21, %._crit_edge
  %23 = phi ptr [ %16, %21 ], [ %.pre24.pre, %._crit_edge ]
  %24 = phi i64 [ %.pre, %21 ], [ %2, %._crit_edge ]
  %25 = add i64 %24, 1
  store i64 %25, ptr @H5Z_table_used_g, align 8
  %26 = getelementptr inbounds %struct.H5Z_class2_t, ptr %23, i64 %24
  tail call void @llvm.memcpy.p0.p0.i64(ptr noundef nonnull align 8 dereferenceable(48) %26, ptr noundef nonnull align 8 dereferenceable(48) %0, i64 48, i1 false)
  br label %29

27:                                               ; preds = %5
  %28 = getelementptr inbounds %struct.H5Z_class2_t, ptr %.pre24.pre, i64 %.022
  tail call void @llvm.memcpy.p0.p0.i64(ptr noundef nonnull align 8 dereferenceable(48) %28, ptr noundef nonnull align 8 dereferenceable(48) %0, i64 48, i1 false)
  br label %29

29:                                               ; preds = %22, %27, %17
  %.014 = phi i32 [ 0, %22 ], [ -1, %17 ], [ 0, %27 ]
  ret i32 %.014
}